Certificate:
    Data:
        Version: 3 (0x2)
        Serial Number:
            2a:fe:3a:97:27:76:e0:9d:07:04:86:be:9f:73:d2:da
        Signature Algorithm: sha256WithRSAEncryption
        Issuer: CN=server
        Validity
            Not Before: Apr 11 22:48:52 2022 GMT
            Not After : Mar 26 22:48:52 2025 GMT
        Subject: CN=client2
        Subject Public Key Info:
            Public Key Algorithm: rsaEncryption
                RSA Public-Key: (2048 bit)
                Modulus:
                    00:e9:7c:3b:e0:15:5a:98:86:ee:44:b8:57:b3:79:
                    b2:aa:17:dd:06:bf:f5:c0:50:0f:b4:05:e0:0d:d0:
                    be:4f:88:37:e6:ed:cd:f3:1b:f7:3b:a5:73:52:1d:
                    9e:d3:8f:3d:15:f8:2a:f8:a0:5e:f4:87:e6:fa:a8:
                    99:70:70:b0:7f:28:22:b4:24:79:65:03:48:01:39:
                    77:58:c6:03:d7:d9:7b:57:2c:01:98:55:08:ba:f8:
                    77:c2:21:31:2b:92:70:76:f1:00:b7:d0:d9:94:71:
                    7d:5a:6e:67:e2:84:16:a0:42:1a:ae:f3:a1:af:c9:
                    c7:d4:d0:6c:51:e4:0f:a5:a5:84:d9:8e:03:28:13:
                    4a:45:89:23:6b:3b:b4:a7:32:ef:f9:65:b6:f7:c3:
                    e6:97:51:ff:01:f3:41:6a:d7:34:5d:6a:53:4c:48:
                    e4:9a:f5:9c:66:2d:24:ea:c3:67:dd:70:94:98:aa:
                    a5:d2:a1:f4:b3:a2:af:24:3d:02:2f:9c:bf:bd:9d:
                    ad:ad:e9:bd:29:a0:7b:b6:d3:0c:4c:74:f1:e0:d7:
                    fb:5f:bf:94:c1:0b:1b:38:56:82:f6:44:fa:56:83:
                    7d:d4:92:99:eb:b0:b1:c3:89:8d:6c:f1:f0:74:b3:
                    5c:4c:00:d6:e5:57:60:00:dd:74:42:a8:ad:b7:a3:
                    57:25
                Exponent: 65537 (0x10001)
        X509v3 extensions:
            X509v3 Basic Constraints: 
                CA:FALSE
            X509v3 Subject Key Identifier: 
                DD:26:04:87:78:18:8B:3F:34:19:50:4C:F0:41:43:EB:CA:5F:BF:CF
            X509v3 Authority Key Identifier: 
                keyid:06:8B:A7:88:B0:B8:4C:C3:1C:AA:56:AC:B5:FB:C0:A9:B1:D9:C2:C0
                DirName:/CN=server
                serial:79:0C:ED:AD:81:13:87:E3:44:75:0C:C9:3E:A0:49:8A:EA:F7:C1:CC

            X509v3 Extended Key Usage: 
                TLS Web Client Authentication
            X509v3 Key Usage: 
                Digital Signature
    Signature Algorithm: sha256WithRSAEncryption
         3f:80:41:43:fb:ae:80:bc:78:01:0b:e4:2e:5d:56:54:4a:96:
         47:b8:1c:be:23:41:29:16:21:c6:95:cb:b5:0f:db:87:a5:17:
         2c:64:c4:d2:46:28:9f:ee:cb:88:49:8a:00:b3:61:62:d5:4d:
         51:96:55:7d:72:c3:73:27:e7:19:b7:e1:12:24:46:e4:94:e5:
         ab:f4:3a:d7:f1:e7:e6:c5:d9:ff:08:9f:f2:2a:3b:18:f7:f6:
         51:9c:f3:31:f0:0c:e0:c0:f1:6e:9b:50:d1:a8:10:f5:03:c4:
         36:20:b2:cb:a2:41:3c:86:c9:44:f6:f5:e9:6d:de:c5:9b:fc:
         d5:ea:f4:6a:5c:03:53:66:cc:68:c0:df:ff:c6:89:93:29:26:
         82:33:ed:e5:c8:09:cb:d9:14:13:40:74:e3:ba:a8:03:9a:73:
         fc:44:11:e2:58:cf:7e:df:8e:06:9e:11:52:2f:8a:ec:74:04:
         92:9b:a0:3c:0e:a6:af:46:5d:32:00:bd:ff:c8:1f:58:93:9b:
         a1:08:74:e0:ec:3e:00:a9:9b:03:25:ff:64:91:d1:8a:08:51:
         a5:56:ec:be:a9:af:4f:b7:8f:bd:1e:3d:90:2d:0e:f9:02:ed:
         e8:8c:d3:5a:16:27:8e:4a:c8:fb:56:91:7c:4e:bc:90:60:5a:
         ba:d9:04:46
-----BEGIN CERTIFICATE-----
MIIDSzCCAjOgAwIBAgIQKv46lyd24J0HBIa+n3PS2jANBgkqhkiG9w0BAQsFADAR
MQ8wDQYDVQQDDAZzZXJ2ZXIwHhcNMjIwNDExMjI0ODUyWhcNMjUwMzI2MjI0ODUy
WjASMRAwDgYDVQQDDAdjbGllbnQyMIIBIjANBgkqhkiG9w0BAQEFAAOCAQ8AMIIB
CgKCAQEA6Xw74BVamIbuRLhXs3myqhfdBr/1wFAPtAXgDdC+T4g35u3N8xv3O6Vz
Uh2e0489Ffgq+KBe9Ifm+qiZcHCwfygitCR5ZQNIATl3WMYD19l7VywBmFUIuvh3
wiExK5JwdvEAt9DZlHF9Wm5n4oQWoEIarvOhr8nH1NBsUeQPpaWE2Y4DKBNKRYkj
azu0pzLv+WW298Pml1H/AfNBatc0XWpTTEjkmvWcZi0k6sNn3XCUmKql0qH0s6Kv
JD0CL5y/vZ2trem9KaB7ttMMTHTx4Nf7X7+UwQsbOFaC9kT6VoN91JKZ67Cxw4mN
bPHwdLNcTADW5VdgAN10Qqitt6NXJQIDAQABo4GdMIGaMAkGA1UdEwQCMAAwHQYD
VR0OBBYEFN0mBId4GIs/NBlQTPBBQ+vKX7/PMEwGA1UdIwRFMEOAFAaLp4iwuEzD
HKpWrLX7wKmx2cLAoRWkEzARMQ8wDQYDVQQDDAZzZXJ2ZXKCFHkM7a2BE4fjRHUM
yT6gSYrq98HMMBMGA1UdJQQMMAoGCCsGAQUFBwMCMAsGA1UdDwQEAwIHgDANBgkq
hkiG9w0BAQsFAAOCAQEAP4BBQ/uugLx4AQvkLl1WVEqWR7gcviNBKRYhxpXLtQ/b
h6UXLGTE0kYon+7LiEmKALNhYtVNUZZVfXLDcyfnGbfhEiRG5JTlq/Q61/Hn5sXZ
/wif8io7GPf2UZzzMfAM4MDxbptQ0agQ9QPENiCyy6JBPIbJRPb16W3exZv81er0
alwDU2bMaMDf/8aJkykmgjPt5cgJy9kUE0B047qoA5pz/EQR4ljPft+OBp4RUi+K
7HQEkpugPA6mr0ZdMgC9/8gfWJOboQh04Ow+AKmbAyX/ZJHRighRpVbsvqmvT7eP
vR49kC0O+QLt6IzTWhYnjkrI+1aRfE68kGBautkERg==
-----END CERTIFICATE-----
