Certificate:
    Data:
        Version: 3 (0x2)
        Serial Number:
            83:de:ff:e0:d7:58:5a:a0:5a:74:82:59:93:3d:1c:2c
        Signature Algorithm: sha256WithRSAEncryption
        Issuer: CN=server
        Validity
            Not Before: Apr 11 22:48:04 2022 GMT
            Not After : Mar 26 22:48:04 2025 GMT
        Subject: CN=bamhammed
        Subject Public Key Info:
            Public Key Algorithm: rsaEncryption
                RSA Public-Key: (2048 bit)
                Modulus:
                    00:cb:65:84:ad:2c:e0:0f:ad:9d:04:00:75:9e:97:
                    f8:07:d0:d2:20:bb:4f:58:47:75:41:b1:7c:d4:fb:
                    d3:24:fe:31:cb:77:0c:f1:f3:a8:fa:7d:bc:09:34:
                    4a:2e:b4:4c:9f:cb:0d:89:7f:73:42:aa:fc:0e:96:
                    bc:8d:87:48:59:43:2c:69:f9:f5:50:e4:26:99:55:
                    81:bc:e5:89:da:17:4e:2f:f6:22:cb:e9:cf:f3:6d:
                    89:bb:ba:55:76:90:5e:3f:19:20:fe:52:89:bc:9c:
                    7e:0b:2a:70:84:3a:b4:0e:70:b8:0d:f0:b7:68:47:
                    69:9b:69:1b:aa:b8:0b:91:0d:be:ae:a3:58:7e:20:
                    88:b1:70:a4:18:a9:80:ee:9e:96:e1:3c:77:b5:71:
                    73:40:b6:72:89:8a:70:a8:90:1b:0b:42:72:92:0f:
                    9a:f8:c6:57:e1:29:92:06:43:2c:18:bf:94:d0:96:
                    ae:88:66:70:0a:ac:bd:96:51:cf:55:84:02:bb:9d:
                    4a:fe:ce:7a:7c:8a:44:87:04:e1:e9:08:33:02:da:
                    15:4a:c6:f4:9b:d0:5b:75:28:9a:a3:0b:02:72:a3:
                    19:2f:05:90:d6:bf:ab:22:43:78:98:d4:40:1e:f7:
                    b7:e3:59:85:3a:3f:b1:8b:f4:2a:f3:37:66:a7:3c:
                    32:b3
                Exponent: 65537 (0x10001)
        X509v3 extensions:
            X509v3 Basic Constraints: 
                CA:FALSE
            X509v3 Subject Key Identifier: 
                90:9F:15:32:2B:10:7A:AE:2D:5E:6F:48:A3:65:18:56:25:2B:4D:9A
            X509v3 Authority Key Identifier: 
                keyid:06:8B:A7:88:B0:B8:4C:C3:1C:AA:56:AC:B5:FB:C0:A9:B1:D9:C2:C0
                DirName:/CN=server
                serial:79:0C:ED:AD:81:13:87:E3:44:75:0C:C9:3E:A0:49:8A:EA:F7:C1:CC

            X509v3 Extended Key Usage: 
                TLS Web Client Authentication
            X509v3 Key Usage: 
                Digital Signature
    Signature Algorithm: sha256WithRSAEncryption
         0b:c5:4f:47:93:d2:f4:b2:e9:c1:e3:0a:58:e5:34:3b:5b:d0:
         6f:20:b9:d5:37:6d:44:51:34:b2:59:59:54:79:90:8b:de:9b:
         61:6d:49:e0:04:b2:13:ef:85:b7:be:c2:69:65:7f:c3:f7:62:
         eb:05:e9:93:2d:0c:4a:ce:3b:0b:c3:b3:4d:0a:de:91:dc:ed:
         1e:4b:9f:51:4b:75:02:17:6d:3c:b4:23:b9:dd:2a:53:78:0a:
         3e:f9:b8:06:02:47:17:6e:02:49:28:43:35:be:6a:0b:ae:c8:
         a7:2d:79:3e:c7:4a:5b:03:13:0a:39:49:97:c5:67:3a:9d:26:
         6a:6d:2f:35:f1:3d:93:f7:16:86:04:72:15:ed:a5:f2:30:be:
         69:9b:63:36:29:3d:37:2c:43:88:21:6b:64:e8:97:b2:8f:30:
         4f:f7:f6:09:09:30:81:c6:20:07:ea:66:ce:0a:af:54:93:7b:
         9c:b1:71:b7:8c:f7:1b:54:c0:86:94:43:05:6f:2d:32:da:af:
         6d:5e:d3:08:26:00:dd:57:2c:1a:af:53:f9:f6:ce:c4:ac:05:
         4b:f7:c0:62:c6:19:92:59:1f:7c:f1:ad:8e:5d:95:d4:94:c1:
         7a:d8:9f:bb:0b:7e:de:4d:b1:63:2d:b1:69:6b:08:f2:e0:3d:
         e7:8a:a8:34
-----BEGIN CERTIFICATE-----
MIIDTjCCAjagAwIBAgIRAIPe/+DXWFqgWnSCWZM9HCwwDQYJKoZIhvcNAQELBQAw
ETEPMA0GA1UEAwwGc2VydmVyMB4XDTIyMDQxMTIyNDgwNFoXDTI1MDMyNjIyNDgw
NFowFDESMBAGA1UEAwwJYmFtaGFtbWVkMIIBIjANBgkqhkiG9w0BAQEFAAOCAQ8A
MIIBCgKCAQEAy2WErSzgD62dBAB1npf4B9DSILtPWEd1QbF81PvTJP4xy3cM8fOo
+n28CTRKLrRMn8sNiX9zQqr8Dpa8jYdIWUMsafn1UOQmmVWBvOWJ2hdOL/Yiy+nP
822Ju7pVdpBePxkg/lKJvJx+CypwhDq0DnC4DfC3aEdpm2kbqrgLkQ2+rqNYfiCI
sXCkGKmA7p6W4Tx3tXFzQLZyiYpwqJAbC0Jykg+a+MZX4SmSBkMsGL+U0JauiGZw
Cqy9llHPVYQCu51K/s56fIpEhwTh6QgzAtoVSsb0m9BbdSiaowsCcqMZLwWQ1r+r
IkN4mNRAHve341mFOj+xi/Qq8zdmpzwyswIDAQABo4GdMIGaMAkGA1UdEwQCMAAw
HQYDVR0OBBYEFJCfFTIrEHquLV5vSKNlGFYlK02aMEwGA1UdIwRFMEOAFAaLp4iw
uEzDHKpWrLX7wKmx2cLAoRWkEzARMQ8wDQYDVQQDDAZzZXJ2ZXKCFHkM7a2BE4fj
RHUMyT6gSYrq98HMMBMGA1UdJQQMMAoGCCsGAQUFBwMCMAsGA1UdDwQEAwIHgDAN
BgkqhkiG9w0BAQsFAAOCAQEAC8VPR5PS9LLpweMKWOU0O1vQbyC51TdtRFE0sllZ
VHmQi96bYW1J4ASyE++Ft77CaWV/w/di6wXpky0MSs47C8OzTQrekdztHkufUUt1
AhdtPLQjud0qU3gKPvm4BgJHF24CSShDNb5qC67Ipy15PsdKWwMTCjlJl8VnOp0m
am0vNfE9k/cWhgRyFe2l8jC+aZtjNik9NyxDiCFrZOiXso8wT/f2CQkwgcYgB+pm
zgqvVJN7nLFxt4z3G1TAhpRDBW8tMtqvbV7TCCYA3VcsGq9T+fbOxKwFS/fAYsYZ
klkffPGtjl2V1JTBetifuwt+3k2xYy2xaWsI8uA954qoNA==
-----END CERTIFICATE-----
